; Function Attrs: mustprogress uwtable
define internal noundef zeroext i1 @"_ZNSt17_Function_handlerIFvllEZN18OpenImageIO_v2_6_022parallel_convert_imageEiiiiPKvNS1_8TypeDescElllPvS4_llliE3$_0E10_M_managerERSt9_Any_dataRKS8_St18_Manager_operation"(ptr nocapture noundef nonnull align 8 dereferenceable(16) %__dest, ptr nocapture noundef nonnull readonly align 8 dereferenceable(16) %__source, i32 noundef %__op) #5 align 2 {
entry:
  switch i32 %__op, label %sw.epilog [
    i32 0, label %sw.bb
    i32 1, label %sw.bb1
    i32 3, label %sw.bb6.i
    i32 2, label %sw.bb4.i
  ]

sw.bb:                                            ; preds = %entry
  store ptr @"_ZTIZN18OpenImageIO_v2_6_022parallel_convert_imageEiiiiPKvNS_8TypeDescElllPvS2_llliE3$_0", ptr %__dest, align 8
  br label %sw.epilog

sw.bb1:                                           ; preds = %entry
  %__source.val = load ptr, ptr %__source, align 8
  store ptr %__source.val, ptr %__dest, align 8
  br label %sw.epilog

sw.bb4.i:                                         ; preds = %entry
  %__source.val5 = load ptr, ptr %__source, align 8
  %call.i.i.i = tail call noalias noundef nonnull dereferenceable(96) ptr @_Znwm(i64 noundef 96) #38
  tail call void @llvm.memcpy.p0.p0.i64(ptr noundef nonnull align 8 dereferenceable(32) %call.i.i.i, ptr noundef nonnull align 8 dereferenceable(32) %__source.val5, i64 32, i1 false)
  %0 = getelementptr inbounds i8, ptr %call.i.i.i, i64 32
  %1 = getelementptr inbounds i8, ptr %__source.val5, i64 32
  %2 = load i8, ptr %1, align 4
  store i8 %2, ptr %0, align 4
  %aggregate.i.i.i.i.i = getelementptr inbounds i8, ptr %call.i.i.i, i64 33
  %aggregate3.i.i.i.i.i = getelementptr inbounds i8, ptr %__source.val5, i64 33
  %3 = load i8, ptr %aggregate3.i.i.i.i.i, align 1
  store i8 %3, ptr %aggregate.i.i.i.i.i, align 1
  %vecsemantics.i.i.i.i.i = getelementptr inbounds i8, ptr %call.i.i.i, i64 34
  %vecsemantics4.i.i.i.i.i = getelementptr inbounds i8, ptr %__source.val5, i64 34
  %4 = load i8, ptr %vecsemantics4.i.i.i.i.i, align 2
  store i8 %4, ptr %vecsemantics.i.i.i.i.i, align 2
  %reserved.i.i.i.i.i = getelementptr inbounds i8, ptr %call.i.i.i, i64 35
  store i8 0, ptr %reserved.i.i.i.i.i, align 1
  %arraylen.i.i.i.i.i = getelementptr inbounds i8, ptr %call.i.i.i, i64 36
  %arraylen5.i.i.i.i.i = getelementptr inbounds i8, ptr %__source.val5, i64 36
  %5 = load i32, ptr %arraylen5.i.i.i.i.i, align 4
  store i32 %5, ptr %arraylen.i.i.i.i.i, align 4
  %6 = getelementptr inbounds i8, ptr %call.i.i.i, i64 40
  %7 = getelementptr inbounds i8, ptr %__source.val5, i64 40
  tail call void @llvm.memcpy.p0.p0.i64(ptr noundef nonnull align 8 dereferenceable(32) %6, ptr noundef nonnull align 8 dereferenceable(32) %7, i64 32, i1 false)
  %8 = getelementptr inbounds i8, ptr %call.i.i.i, i64 72
  %9 = getelementptr inbounds i8, ptr %__source.val5, i64 72
  %10 = load i8, ptr %9, align 4
  store i8 %10, ptr %8, align 4
  %aggregate.i5.i.i.i.i = getelementptr inbounds i8, ptr %call.i.i.i, i64 73
  %aggregate3.i6.i.i.i.i = getelementptr inbounds i8, ptr %__source.val5, i64 73
  %11 = load i8, ptr %aggregate3.i6.i.i.i.i, align 1
  store i8 %11, ptr %aggregate.i5.i.i.i.i, align 1
  %vecsemantics.i7.i.i.i.i = getelementptr inbounds i8, ptr %call.i.i.i, i64 74
  %vecsemantics4.i8.i.i.i.i = getelementptr inbounds i8, ptr %__source.val5, i64 74
  %12 = load i8, ptr %vecsemantics4.i8.i.i.i.i, align 2
  store i8 %12, ptr %vecsemantics.i7.i.i.i.i, align 2
  %reserved.i9.i.i.i.i = getelementptr inbounds i8, ptr %call.i.i.i, i64 75
  store i8 0, ptr %reserved.i9.i.i.i.i, align 1
  %arraylen.i10.i.i.i.i = getelementptr inbounds i8, ptr %call.i.i.i, i64 76
  %arraylen5.i11.i.i.i.i = getelementptr inbounds i8, ptr %__source.val5, i64 76
  %13 = load i32, ptr %arraylen5.i11.i.i.i.i, align 4
  store i32 %13, ptr %arraylen.i10.i.i.i.i, align 4
  %14 = getelementptr inbounds i8, ptr %call.i.i.i, i64 80
  %15 = getelementptr inbounds i8, ptr %__source.val5, i64 80
  tail call void @llvm.memcpy.p0.p0.i64(ptr noundef nonnull align 8 dereferenceable(16) %14, ptr noundef nonnull align 8 dereferenceable(16) %15, i64 16, i1 false)
  store ptr %call.i.i.i, ptr %__dest, align 8
  br label %sw.epilog

sw.bb6.i:                                         ; preds = %entry
  %__dest.val.i = load ptr, ptr %__dest, align 8
  %isnull.i.i = icmp eq ptr %__dest.val.i, null
  br i1 %isnull.i.i, label %sw.epilog, label %delete.notnull.i.i

delete.notnull.i.i:                               ; preds = %sw.bb6.i
  tail call void @_ZdlPv(ptr noundef nonnull %__dest.val.i) #33
  br label %sw.epilog

sw.epilog:                                        ; preds = %entry, %delete.notnull.i.i, %sw.bb6.i, %sw.bb4.i, %sw.bb1, %sw.bb
  ret i1 false
}